(lp0
(S'cppflags'
p1
ccopy_reg
_reconstructor
p2
(cino.utils
SpaceList
p3
c__builtin__
list
p4
(lp5
S'-mmcu=atmega328p'
p6
aS'-DF_CPU=16000000L'
p7
aS'-DARDUINO=105'
p8
aS'-I/usr/share/arduino/hardware/arduino/cores/arduino'
p9
aS'-ffunction-sections'
p10
aS'-fdata-sections'
p11
aS'-g'
p12
aS'-Os'
p13
aS'-w'
p14
aS'-I/usr/share/arduino/hardware/arduino/variants/standard'
p15
aS'-I/usr/share/arduino/libraries/Servo'
p16
aS'-Ilib/ros_lib'
p17
aS'-Ilib/ros_lib/roscpp_tutorials'
p18
aS'-Ilib/ros_lib/stereo_msgs'
p19
aS'-Ilib/ros_lib/smach_msgs'
p20
aS'-Ilib/ros_lib/laser_assembler'
p21
aS'-Ilib/ros_lib/trajectory_msgs'
p22
aS'-Ilib/ros_lib/rosserial_msgs'
p23
aS'-Ilib/ros_lib/nodelet'
p24
aS'-Ilib/ros_lib/control_msgs'
p25
aS'-Ilib/ros_lib/visualization_msgs'
p26
aS'-Ilib/ros_lib/geometry_msgs'
p27
aS'-Ilib/ros_lib/turtlesim'
p28
aS'-Ilib/ros_lib/polled_camera'
p29
aS'-Ilib/ros_lib/tests'
p30
aS'-Ilib/ros_lib/shape_msgs'
p31
aS'-Ilib/ros_lib/rosgraph_msgs'
p32
aS'-Ilib/ros_lib/topic_tools'
p33
aS'-Ilib/ros_lib/pcl_msgs'
p34
aS'-Ilib/ros_lib/actionlib'
p35
aS'-Ilib/ros_lib/std_srvs'
p36
aS'-Ilib/ros_lib/rosserial_mbed'
p37
aS'-Ilib/ros_lib/tf2_msgs'
p38
aS'-Ilib/ros_lib/dynamic_reconfigure'
p39
aS'-Ilib/ros_lib/gazebo_msgs'
p40
aS'-Ilib/ros_lib/rospy_tutorials'
p41
aS'-Ilib/ros_lib/ros'
p42
aS'-Ilib/ros_lib/nav_msgs'
p43
aS'-Ilib/ros_lib/std_msgs'
p44
aS'-Ilib/ros_lib/tf'
p45
aS'-Ilib/ros_lib/actionlib_tutorials'
p46
aS'-Ilib/ros_lib/theora_image_transport'
p47
aS'-Ilib/ros_lib/sensor_msgs'
p48
aS'-Ilib/ros_lib/diagnostic_msgs'
p49
aS'-Ilib/ros_lib/turtle_actionlib'
p50
aS'-Ilib/ros_lib/actionlib_msgs'
p51
aS'-Ilib/ros_lib/map_msgs'
p52
aS'-Ilib/ros_lib/controller_manager_msgs'
p53
aS'-Ilib/ros_lib/bond'
p54
aS'-Ilib/ros_lib/control_toolbox'
p55
aS'-Ilib/ros_lib/roscpp'
p56
aS'-Ilib/ros_lib/tests/array_test'
p57
aS'-Ilib/ros_lib/tests/time_test'
p58
aS'-Ilib/ros_lib/tests/float64_test'
p59
aS'-I/usr/share/arduino/hardware/arduino/cores/arduino'
p60
aS'-I/usr/share/arduino/hardware/arduino/cores/arduino/avr-libc'
p61
atp62
Rp63
tp64
a(S'cc'
p65
S'/usr/share/arduino/hardware/tools/avr/bin/avr-gcc'
p66
tp67
a(S'arduino_libraries_dir'
p68
S'/usr/share/arduino/libraries'
p69
tp70
a(S'avrdude'
p71
S'/usr/share/arduino/hardware/tools/avrdude'
p72
tp73
a(S'ar'
p74
S'/usr/share/arduino/hardware/tools/avr/bin/avr-ar'
p75
tp76
a(S'names'
p77
(dp78
S'cpp'
p79
S'%s.cpp'
p80
sS'obj'
p81
S'%s.o'
p82
sS'deps'
p83
S'%s.d'
p84
sS'lib'
p85
S'lib%s.a'
p86
stp87
a(S'ldflags'
p88
g2
(g3
g4
(lp89
g6
aS'-Wl,-Os'
p90
aS'-Wl,--gc-sections'
p91
atp92
Rp93
tp94
a(S'arduino_lib_version'
p95
g2
(cino.environment
Version
p96
c__builtin__
tuple
p97
(I1
I0
I5
tp98
tp99
Rp100
tp101
a(S'objcopy'
p102
S'/usr/share/arduino/hardware/tools/avr/bin/avr-objcopy'
p103
tp104
a(S'board_models'
p105
cino.environment
BoardModels
p106
((lp107
(lp108
S'uno'
p109
a(dp110
S'bootloader'
p111
(dp112
S'extended_fuses'
p113
S'0xfd'
p114
sS'high_fuses'
p115
S'0xde'
p116
sS'low_fuses'
p117
S'0xff'
p118
sS'lock_bits'
p119
S'0xcf'
p120
sS'file'
p121
S'optiboot_atmega328.hex'
p122
sS'path'
p123
S'optiboot'
p124
sS'unlock_bits'
p125
S'0xff'
p126
ssS'upload'
p127
(dp128
S'protocol'
p129
S'arduino'
p130
sS'maximum_size'
p131
S'32256'
p132
sS'speed'
p133
S'115200'
p134
ssS'build'
p135
(dp136
S'core'
p137
S'arduino'
p138
sS'mcu'
p139
S'atmega328p'
p140
sS'f_cpu'
p141
S'16000000L'
p142
sS'variant'
p143
S'standard'
p144
ssS'name'
p145
S'Arduino Uno'
p146
saa(lp147
S'atmega328'
p148
a(dp149
S'bootloader'
p150
(dp151
S'extended_fuses'
p152
S'0xfd'
p153
sS'high_fuses'
p154
S'0xDA'
p155
sS'low_fuses'
p156
S'0xFF'
p157
sS'lock_bits'
p158
S'0xcf'
p159
sS'file'
p160
S'ATmegaBOOT_168_atmega328.hex'
p161
sS'path'
p162
S'atmega'
p163
sS'unlock_bits'
p164
S'0xff'
p165
ssS'upload'
p166
(dp167
S'protocol'
p168
S'arduino'
p169
sS'maximum_size'
p170
S'30720'
p171
sS'speed'
p172
S'57600'
p173
ssS'build'
p174
(dp175
S'core'
p176
S'arduino'
p177
sS'mcu'
p178
S'atmega328p'
p179
sS'f_cpu'
p180
S'16000000L'
p181
sS'variant'
p182
S'standard'
p183
ssS'name'
p184
S'Arduino Duemilanove w/ ATmega328'
p185
saa(lp186
S'diecimila'
p187
a(dp188
S'bootloader'
p189
(dp190
S'extended_fuses'
p191
S'0xf8'
p192
sS'high_fuses'
p193
S'0xdd'
p194
sS'low_fuses'
p195
S'0xff'
p196
sS'lock_bits'
p197
S'0xcf'
p198
sS'file'
p199
S'ATmegaBOOT_168_diecimila.hex'
p200
sS'path'
p201
S'atmega'
p202
sS'unlock_bits'
p203
S'0xff'
p204
ssS'upload'
p205
(dp206
S'protocol'
p207
S'arduino'
p208
sS'maximum_size'
p209
S'14336'
p210
sS'speed'
p211
S'19200'
p212
ssS'build'
p213
(dp214
S'core'
p215
S'arduino'
p216
sS'mcu'
p217
S'atmega168'
p218
sS'f_cpu'
p219
S'16000000L'
p220
sS'variant'
p221
S'standard'
p222
ssS'name'
p223
S'Arduino Diecimila or Duemilanove w/ ATmega168'
p224
saa(lp225
S'nano328'
p226
a(dp227
S'bootloader'
p228
(dp229
S'extended_fuses'
p230
S'0xfd'
p231
sS'high_fuses'
p232
S'0xDA'
p233
sS'low_fuses'
p234
S'0xFF'
p235
sS'lock_bits'
p236
S'0xcf'
p237
sS'file'
p238
S'ATmegaBOOT_168_atmega328.hex'
p239
sS'path'
p240
S'atmega'
p241
sS'unlock_bits'
p242
S'0xff'
p243
ssS'upload'
p244
(dp245
S'protocol'
p246
S'arduino'
p247
sS'maximum_size'
p248
S'30720'
p249
sS'speed'
p250
S'57600'
p251
ssS'build'
p252
(dp253
S'core'
p254
S'arduino'
p255
sS'mcu'
p256
S'atmega328p'
p257
sS'f_cpu'
p258
S'16000000L'
p259
sS'variant'
p260
S'eightanaloginputs'
p261
ssS'name'
p262
S'Arduino Nano w/ ATmega328'
p263
saa(lp264
S'nano'
p265
a(dp266
S'bootloader'
p267
(dp268
S'extended_fuses'
p269
S'0xf8'
p270
sS'high_fuses'
p271
S'0xdd'
p272
sS'low_fuses'
p273
S'0xff'
p274
sS'lock_bits'
p275
S'0xcf'
p276
sS'file'
p277
S'ATmegaBOOT_168_diecimila.hex'
p278
sS'path'
p279
S'atmega'
p280
sS'unlock_bits'
p281
S'0xff'
p282
ssS'upload'
p283
(dp284
S'protocol'
p285
S'arduino'
p286
sS'maximum_size'
p287
S'14336'
p288
sS'speed'
p289
S'19200'
p290
ssS'build'
p291
(dp292
S'core'
p293
S'arduino'
p294
sS'mcu'
p295
S'atmega168'
p296
sS'f_cpu'
p297
S'16000000L'
p298
sS'variant'
p299
S'eightanaloginputs'
p300
ssS'name'
p301
S'Arduino Nano w/ ATmega168'
p302
saa(lp303
S'mega2560'
p304
a(dp305
S'bootloader'
p306
(dp307
S'extended_fuses'
p308
S'0xFD'
p309
sS'high_fuses'
p310
S'0xD8'
p311
sS'low_fuses'
p312
S'0xFF'
p313
sS'lock_bits'
p314
S'0xcf'
p315
sS'file'
p316
S'stk500boot_v2_mega2560.hex'
p317
sS'path'
p318
S'stk500v2'
p319
sS'unlock_bits'
p320
S'0xff'
p321
ssS'upload'
p322
(dp323
S'protocol'
p324
S'wiring'
p325
sS'maximum_size'
p326
S'258048'
p327
sS'speed'
p328
S'115200'
p329
ssS'build'
p330
(dp331
S'core'
p332
S'arduino'
p333
sS'mcu'
p334
S'atmega2560'
p335
sS'f_cpu'
p336
S'16000000L'
p337
sS'variant'
p338
S'mega'
p339
ssS'name'
p340
S'Arduino Mega 2560 or Mega ADK'
p341
saa(lp342
S'mega'
p343
a(dp344
S'bootloader'
p345
(dp346
S'extended_fuses'
p347
S'0xF5'
p348
sS'high_fuses'
p349
S'0xDA'
p350
sS'low_fuses'
p351
S'0xFF'
p352
sS'lock_bits'
p353
S'0xcf'
p354
sS'file'
p355
S'ATmegaBOOT_168_atmega1280.hex'
p356
sS'path'
p357
S'atmega'
p358
sS'unlock_bits'
p359
S'0xff'
p360
ssS'upload'
p361
(dp362
S'protocol'
p363
S'arduino'
p364
sS'maximum_size'
p365
S'126976'
p366
sS'speed'
p367
S'57600'
p368
ssS'build'
p369
(dp370
S'core'
p371
S'arduino'
p372
sS'mcu'
p373
S'atmega1280'
p374
sS'f_cpu'
p375
S'16000000L'
p376
sS'variant'
p377
S'mega'
p378
ssS'name'
p379
S'Arduino Mega (ATmega1280)'
p380
saa(lp381
S'leonardo'
p382
a(dp383
S'bootloader'
p384
(dp385
S'extended_fuses'
p386
S'0xcb'
p387
sS'high_fuses'
p388
S'0xd8'
p389
sS'low_fuses'
p390
S'0xff'
p391
sS'lock_bits'
p392
S'0xef'
p393
sS'file'
p394
S'Caterina-Leonardo.hex'
p395
sS'path'
p396
S'caterina'
p397
sS'unlock_bits'
p398
S'0xff'
p399
ssS'upload'
p400
(dp401
S'protocol'
p402
S'avr109'
p403
sS'maximum_size'
p404
S'28672'
p405
sS'speed'
p406
S'57600'
p407
sS'disable_flushing'
p408
S'true'
p409
ssS'build'
p410
(dp411
S'core'
p412
S'arduino'
p413
sS'f_cpu'
p414
S'16000000L'
p415
sS'vid'
p416
S'0x2341'
p417
sS'pid'
p418
S'0x8036'
p419
sS'variant'
p420
S'leonardo'
p421
sS'mcu'
p422
S'atmega32u4'
p423
ssS'name'
p424
S'Arduino Leonardo'
p425
saa(lp426
S'esplora'
p427
a(dp428
S'bootloader'
p429
(dp430
S'extended_fuses'
p431
S'0xcb'
p432
sS'high_fuses'
p433
S'0xd8'
p434
sS'low_fuses'
p435
S'0xff'
p436
sS'lock_bits'
p437
S'0xef'
p438
sS'file'
p439
S'Caterina-Esplora.hex'
p440
sS'path'
p441
S'caterina'
p442
sS'unlock_bits'
p443
S'0xff'
p444
ssS'upload'
p445
(dp446
S'protocol'
p447
S'avr109'
p448
sS'maximum_size'
p449
S'28672'
p450
sS'speed'
p451
S'57600'
p452
sS'disable_flushing'
p453
S'true'
p454
ssS'build'
p455
(dp456
S'core'
p457
S'arduino'
p458
sS'f_cpu'
p459
S'16000000L'
p460
sS'vid'
p461
S'0x2341'
p462
sS'pid'
p463
S'0x803C'
p464
sS'variant'
p465
S'leonardo'
p466
sS'mcu'
p467
S'atmega32u4'
p468
ssS'name'
p469
S'Arduino Esplora'
p470
saa(lp471
S'micro'
p472
a(dp473
S'bootloader'
p474
(dp475
S'extended_fuses'
p476
S'0xcb'
p477
sS'high_fuses'
p478
S'0xd8'
p479
sS'low_fuses'
p480
S'0xff'
p481
sS'lock_bits'
p482
S'0xef'
p483
sS'file'
p484
S'Caterina-Micro.hex'
p485
sS'path'
p486
S'caterina'
p487
sS'unlock_bits'
p488
S'0xff'
p489
ssS'upload'
p490
(dp491
S'protocol'
p492
S'avr109'
p493
sS'maximum_size'
p494
S'28672'
p495
sS'speed'
p496
S'57600'
p497
sS'disable_flushing'
p498
S'true'
p499
ssS'build'
p500
(dp501
S'core'
p502
S'arduino'
p503
sS'f_cpu'
p504
S'16000000L'
p505
sS'vid'
p506
S'0x2341'
p507
sS'pid'
p508
S'0x8037'
p509
sS'variant'
p510
S'micro'
p511
sS'mcu'
p512
S'atmega32u4'
p513
ssS'name'
p514
S'Arduino Micro'
p515
saa(lp516
S'mini328'
p517
a(dp518
S'bootloader'
p519
(dp520
S'extended_fuses'
p521
S'0xfd'
p522
sS'high_fuses'
p523
S'0xd8'
p524
sS'low_fuses'
p525
S'0xff'
p526
sS'lock_bits'
p527
S'0xcf'
p528
sS'file'
p529
S'optiboot_atmega328-Mini.hex'
p530
sS'path'
p531
S'optiboot'
p532
sS'unlock_bits'
p533
S'0xff'
p534
ssS'upload'
p535
(dp536
S'protocol'
p537
S'arduino'
p538
sS'maximum_size'
p539
S'28672'
p540
sS'speed'
p541
S'115200'
p542
ssS'build'
p543
(dp544
S'core'
p545
S'arduino'
p546
sS'mcu'
p547
S'atmega328p'
p548
sS'f_cpu'
p549
S'16000000L'
p550
sS'variant'
p551
S'eightanaloginputs'
p552
ssS'name'
p553
S'Arduino Mini w/ ATmega328'
p554
saa(lp555
S'mini'
p556
a(dp557
S'bootloader'
p558
(dp559
S'extended_fuses'
p560
S'0xf8'
p561
sS'high_fuses'
p562
S'0xdd'
p563
sS'low_fuses'
p564
S'0xff'
p565
sS'lock_bits'
p566
S'0xcf'
p567
sS'file'
p568
S'ATmegaBOOT_168_ng.hex'
p569
sS'path'
p570
S'atmega'
p571
sS'unlock_bits'
p572
S'0xff'
p573
ssS'upload'
p574
(dp575
S'protocol'
p576
S'arduino'
p577
sS'maximum_size'
p578
S'14336'
p579
sS'speed'
p580
S'19200'
p581
ssS'build'
p582
(dp583
S'core'
p584
S'arduino'
p585
sS'mcu'
p586
S'atmega168'
p587
sS'f_cpu'
p588
S'16000000L'
p589
sS'variant'
p590
S'eightanaloginputs'
p591
ssS'name'
p592
S'Arduino Mini w/ ATmega168'
p593
saa(lp594
S'ethernet'
p595
a(dp596
S'bootloader'
p597
(dp598
S'extended_fuses'
p599
S'0xfd'
p600
sS'high_fuses'
p601
S'0xde'
p602
sS'low_fuses'
p603
S'0xff'
p604
sS'lock_bits'
p605
S'0xcf'
p606
sS'file'
p607
S'optiboot_atmega328.hex'
p608
sS'path'
p609
S'optiboot'
p610
sS'unlock_bits'
p611
S'0xff'
p612
ssS'upload'
p613
(dp614
S'protocol'
p615
S'arduino'
p616
sS'maximum_size'
p617
S'32256'
p618
sS'speed'
p619
S'115200'
p620
ssS'build'
p621
(dp622
S'variant'
p623
S'standard'
p624
sS'mcu'
p625
S'atmega328p'
p626
sS'f_cpu'
p627
S'16000000L'
p628
sS'core'
p629
S'arduino'
p630
ssS'name'
p631
S'Arduino Ethernet'
p632
saa(lp633
S'fio'
p634
a(dp635
S'bootloader'
p636
(dp637
S'extended_fuses'
p638
S'0xfd'
p639
sS'high_fuses'
p640
S'0xDA'
p641
sS'low_fuses'
p642
S'0xFF'
p643
sS'lock_bits'
p644
S'0xcf'
p645
sS'file'
p646
S'ATmegaBOOT_168_atmega328_pro_8MHz.hex'
p647
sS'path'
p648
S'arduino:atmega'
p649
sS'unlock_bits'
p650
S'0xff'
p651
ssS'upload'
p652
(dp653
S'protocol'
p654
S'arduino'
p655
sS'maximum_size'
p656
S'30720'
p657
sS'speed'
p658
S'57600'
p659
ssS'build'
p660
(dp661
S'core'
p662
S'arduino'
p663
sS'mcu'
p664
S'atmega328p'
p665
sS'f_cpu'
p666
S'8000000L'
p667
sS'variant'
p668
S'eightanaloginputs'
p669
ssS'name'
p670
S'Arduino Fio'
p671
saa(lp672
S'bt328'
p673
a(dp674
S'bootloader'
p675
(dp676
S'extended_fuses'
p677
S'0xfd'
p678
sS'high_fuses'
p679
S'0xd8'
p680
sS'low_fuses'
p681
S'0xff'
p682
sS'lock_bits'
p683
S'0xcf'
p684
sS'file'
p685
S'ATmegaBOOT_168_atmega328_bt.hex'
p686
sS'path'
p687
S'bt'
p688
sS'unlock_bits'
p689
S'0xff'
p690
ssS'upload'
p691
(dp692
S'protocol'
p693
S'arduino'
p694
sS'maximum_size'
p695
S'28672'
p696
sS'speed'
p697
S'19200'
p698
sS'disable_flushing'
p699
S'true'
p700
ssS'build'
p701
(dp702
S'core'
p703
S'arduino'
p704
sS'mcu'
p705
S'atmega328p'
p706
sS'f_cpu'
p707
S'16000000L'
p708
sS'variant'
p709
S'eightanaloginputs'
p710
ssS'name'
p711
S'Arduino BT w/ ATmega328'
p712
saa(lp713
S'bt'
p714
a(dp715
S'bootloader'
p716
(dp717
S'extended_fuses'
p718
S'0xf8'
p719
sS'high_fuses'
p720
S'0xdd'
p721
sS'low_fuses'
p722
S'0xff'
p723
sS'lock_bits'
p724
S'0xcf'
p725
sS'file'
p726
S'ATmegaBOOT_168.hex'
p727
sS'path'
p728
S'bt'
p729
sS'unlock_bits'
p730
S'0xff'
p731
ssS'upload'
p732
(dp733
S'protocol'
p734
S'arduino'
p735
sS'maximum_size'
p736
S'14336'
p737
sS'speed'
p738
S'19200'
p739
sS'disable_flushing'
p740
S'true'
p741
ssS'build'
p742
(dp743
S'core'
p744
S'arduino'
p745
sS'mcu'
p746
S'atmega168'
p747
sS'f_cpu'
p748
S'16000000L'
p749
sS'variant'
p750
S'eightanaloginputs'
p751
ssS'name'
p752
S'Arduino BT w/ ATmega168'
p753
saa(lp754
S'LilyPadUSB'
p755
a(dp756
S'bootloader'
p757
(dp758
S'extended_fuses'
p759
S'0xce'
p760
sS'high_fuses'
p761
S'0xd8'
p762
sS'low_fuses'
p763
S'0xff'
p764
sS'lock_bits'
p765
S'0xef'
p766
sS'file'
p767
S'Caterina-LilyPadUSB.hex'
p768
sS'path'
p769
S'caterina-LilyPadUSB'
p770
sS'unlock_bits'
p771
S'0xff'
p772
ssS'upload'
p773
(dp774
S'protocol'
p775
S'avr109'
p776
sS'maximum_size'
p777
S'28672'
p778
sS'speed'
p779
S'57600'
p780
sS'disable_flushing'
p781
S'true'
p782
ssS'build'
p783
(dp784
S'core'
p785
S'arduino'
p786
sS'f_cpu'
p787
S'8000000L'
p788
sS'vid'
p789
S'0x1B4F'
p790
sS'pid'
p791
S'0x9208'
p792
sS'variant'
p793
S'leonardo'
p794
sS'mcu'
p795
S'atmega32u4'
p796
ssS'name'
p797
S'LilyPad Arduino USB'
p798
saa(lp799
S'lilypad328'
p800
a(dp801
S'bootloader'
p802
(dp803
S'extended_fuses'
p804
S'0xfd'
p805
sS'high_fuses'
p806
S'0xDA'
p807
sS'low_fuses'
p808
S'0xFF'
p809
sS'lock_bits'
p810
S'0xcf'
p811
sS'file'
p812
S'ATmegaBOOT_168_atmega328_pro_8MHz.hex'
p813
sS'path'
p814
S'atmega'
p815
sS'unlock_bits'
p816
S'0xff'
p817
ssS'upload'
p818
(dp819
S'protocol'
p820
S'arduino'
p821
sS'maximum_size'
p822
S'30720'
p823
sS'speed'
p824
S'57600'
p825
ssS'build'
p826
(dp827
S'core'
p828
S'arduino'
p829
sS'mcu'
p830
S'atmega328p'
p831
sS'f_cpu'
p832
S'8000000L'
p833
sS'variant'
p834
S'standard'
p835
ssS'name'
p836
S'LilyPad Arduino w/ ATmega328'
p837
saa(lp838
S'lilypad'
p839
a(dp840
S'bootloader'
p841
(dp842
S'extended_fuses'
p843
S'0xf8'
p844
sS'high_fuses'
p845
S'0xdd'
p846
sS'low_fuses'
p847
S'0xe2'
p848
sS'lock_bits'
p849
S'0xcf'
p850
sS'file'
p851
S'LilyPadBOOT_168.hex'
p852
sS'path'
p853
S'lilypad'
p854
sS'unlock_bits'
p855
S'0xff'
p856
ssS'upload'
p857
(dp858
S'protocol'
p859
S'arduino'
p860
sS'maximum_size'
p861
S'14336'
p862
sS'speed'
p863
S'19200'
p864
ssS'build'
p865
(dp866
S'core'
p867
S'arduino'
p868
sS'mcu'
p869
S'atmega168'
p870
sS'f_cpu'
p871
S'8000000L'
p872
sS'variant'
p873
S'standard'
p874
ssS'name'
p875
S'LilyPad Arduino w/ ATmega168'
p876
saa(lp877
S'pro5v328'
p878
a(dp879
S'bootloader'
p880
(dp881
S'extended_fuses'
p882
S'0xfd'
p883
sS'high_fuses'
p884
S'0xDA'
p885
sS'low_fuses'
p886
S'0xFF'
p887
sS'lock_bits'
p888
S'0xcf'
p889
sS'file'
p890
S'ATmegaBOOT_168_atmega328.hex'
p891
sS'path'
p892
S'atmega'
p893
sS'unlock_bits'
p894
S'0xff'
p895
ssS'upload'
p896
(dp897
S'protocol'
p898
S'arduino'
p899
sS'maximum_size'
p900
S'30720'
p901
sS'speed'
p902
S'57600'
p903
ssS'build'
p904
(dp905
S'core'
p906
S'arduino'
p907
sS'mcu'
p908
S'atmega328p'
p909
sS'f_cpu'
p910
S'16000000L'
p911
sS'variant'
p912
S'standard'
p913
ssS'name'
p914
S'Arduino Pro or Pro Mini (5V, 16 MHz) w/ ATmega328'
p915
saa(lp916
S'pro5v'
p917
a(dp918
S'bootloader'
p919
(dp920
S'extended_fuses'
p921
S'0xf8'
p922
sS'high_fuses'
p923
S'0xdd'
p924
sS'low_fuses'
p925
S'0xff'
p926
sS'lock_bits'
p927
S'0xcf'
p928
sS'file'
p929
S'ATmegaBOOT_168_diecimila.hex'
p930
sS'path'
p931
S'atmega'
p932
sS'unlock_bits'
p933
S'0xff'
p934
ssS'upload'
p935
(dp936
S'protocol'
p937
S'arduino'
p938
sS'maximum_size'
p939
S'14336'
p940
sS'speed'
p941
S'19200'
p942
ssS'build'
p943
(dp944
S'core'
p945
S'arduino'
p946
sS'mcu'
p947
S'atmega168'
p948
sS'f_cpu'
p949
S'16000000L'
p950
sS'variant'
p951
S'standard'
p952
ssS'name'
p953
S'Arduino Pro or Pro Mini (5V, 16 MHz) w/ ATmega168'
p954
saa(lp955
S'pro328'
p956
a(dp957
S'bootloader'
p958
(dp959
S'extended_fuses'
p960
S'0xfd'
p961
sS'high_fuses'
p962
S'0xDA'
p963
sS'low_fuses'
p964
S'0xFF'
p965
sS'lock_bits'
p966
S'0xcf'
p967
sS'file'
p968
S'ATmegaBOOT_168_atmega328_pro_8MHz.hex'
p969
sS'path'
p970
S'atmega'
p971
sS'unlock_bits'
p972
S'0xff'
p973
ssS'upload'
p974
(dp975
S'protocol'
p976
S'arduino'
p977
sS'maximum_size'
p978
S'30720'
p979
sS'speed'
p980
S'57600'
p981
ssS'build'
p982
(dp983
S'core'
p984
S'arduino'
p985
sS'mcu'
p986
S'atmega328p'
p987
sS'f_cpu'
p988
S'8000000L'
p989
sS'variant'
p990
S'standard'
p991
ssS'name'
p992
S'Arduino Pro or Pro Mini (3.3V, 8 MHz) w/ ATmega328'
p993
saa(lp994
S'pro'
p995
a(dp996
S'bootloader'
p997
(dp998
S'extended_fuses'
p999
S'0xf8'
p1000
sS'high_fuses'
p1001
S'0xdd'
p1002
sS'low_fuses'
p1003
S'0xc6'
p1004
sS'lock_bits'
p1005
S'0xcf'
p1006
sS'file'
p1007
S'ATmegaBOOT_168_pro_8MHz.hex'
p1008
sS'path'
p1009
S'atmega'
p1010
sS'unlock_bits'
p1011
S'0xff'
p1012
ssS'upload'
p1013
(dp1014
S'protocol'
p1015
S'arduino'
p1016
sS'maximum_size'
p1017
S'14336'
p1018
sS'speed'
p1019
S'19200'
p1020
ssS'build'
p1021
(dp1022
S'core'
p1023
S'arduino'
p1024
sS'mcu'
p1025
S'atmega168'
p1026
sS'f_cpu'
p1027
S'8000000L'
p1028
sS'variant'
p1029
S'standard'
p1030
ssS'name'
p1031
S'Arduino Pro or Pro Mini (3.3V, 8 MHz) w/ ATmega168'
p1032
saa(lp1033
S'atmega168'
p1034
a(dp1035
S'bootloader'
p1036
(dp1037
S'extended_fuses'
p1038
S'0xf8'
p1039
sS'high_fuses'
p1040
S'0xdd'
p1041
sS'low_fuses'
p1042
S'0xff'
p1043
sS'lock_bits'
p1044
S'0xcf'
p1045
sS'file'
p1046
S'ATmegaBOOT_168_ng.hex'
p1047
sS'path'
p1048
S'atmega'
p1049
sS'unlock_bits'
p1050
S'0xff'
p1051
ssS'upload'
p1052
(dp1053
S'protocol'
p1054
S'arduino'
p1055
sS'maximum_size'
p1056
S'14336'
p1057
sS'speed'
p1058
S'19200'
p1059
ssS'build'
p1060
(dp1061
S'core'
p1062
S'arduino'
p1063
sS'mcu'
p1064
S'atmega168'
p1065
sS'f_cpu'
p1066
S'16000000L'
p1067
sS'variant'
p1068
S'standard'
p1069
ssS'name'
p1070
S'Arduino NG or older w/ ATmega168'
p1071
saa(lp1072
S'atmega8'
p1073
a(dp1074
S'bootloader'
p1075
(dp1076
S'high_fuses'
p1077
S'0xca'
p1078
sS'low_fuses'
p1079
S'0xdf'
p1080
sS'lock_bits'
p1081
S'0xcf'
p1082
sS'file'
p1083
S'ATmegaBOOT-prod-firmware-2009-11-07.hex'
p1084
sS'path'
p1085
S'atmega8'
p1086
sS'unlock_bits'
p1087
S'0xff'
p1088
ssS'upload'
p1089
(dp1090
S'protocol'
p1091
S'arduino'
p1092
sS'maximum_size'
p1093
S'7168'
p1094
sS'speed'
p1095
S'19200'
p1096
ssS'build'
p1097
(dp1098
S'core'
p1099
S'arduino'
p1100
sS'mcu'
p1101
S'atmega8'
p1102
sS'f_cpu'
p1103
S'16000000L'
p1104
sS'variant'
p1105
S'standard'
p1106
ssS'name'
p1107
S'Arduino NG or older w/ ATmega8'
p1108
saa(lp1109
S'robotControl'
p1110
a(dp1111
S'bootloader'
p1112
(dp1113
S'extended_fuses'
p1114
S'0xcb'
p1115
sS'high_fuses'
p1116
S'0xd8'
p1117
sS'low_fuses'
p1118
S'0xff'
p1119
sS'lock_bits'
p1120
S'0xef'
p1121
sS'file'
p1122
S'Caterina-Robot-Control.hex'
p1123
sS'path'
p1124
S'caterina-Arduino_Robot'
p1125
sS'unlock_bits'
p1126
S'0xff'
p1127
ssS'upload'
p1128
(dp1129
S'protocol'
p1130
S'avr109'
p1131
sS'maximum_size'
p1132
S'28672'
p1133
sS'speed'
p1134
S'57600'
p1135
sS'disable_flushing'
p1136
S'true'
p1137
ssS'build'
p1138
(dp1139
S'core'
p1140
S'robot'
p1141
sS'f_cpu'
p1142
S'16000000L'
p1143
sS'vid'
p1144
S'0x2341'
p1145
sS'pid'
p1146
S'0x8038'
p1147
sS'variant'
p1148
S'robot_control'
p1149
sS'mcu'
p1150
S'atmega32u4'
p1151
ssS'name'
p1152
S'Arduino Robot Control'
p1153
saa(lp1154
S'robotMotor'
p1155
a(dp1156
S'bootloader'
p1157
(dp1158
S'extended_fuses'
p1159
S'0xcb'
p1160
sS'high_fuses'
p1161
S'0xd8'
p1162
sS'low_fuses'
p1163
S'0xff'
p1164
sS'lock_bits'
p1165
S'0xef'
p1166
sS'file'
p1167
S'Caterina-Robot-Motor.hex'
p1168
sS'path'
p1169
S'caterina-Arduino_Robot'
p1170
sS'unlock_bits'
p1171
S'0xff'
p1172
ssS'upload'
p1173
(dp1174
S'protocol'
p1175
S'avr109'
p1176
sS'maximum_size'
p1177
S'28672'
p1178
sS'speed'
p1179
S'57600'
p1180
sS'disable_flushing'
p1181
S'true'
p1182
ssS'build'
p1183
(dp1184
S'core'
p1185
S'robot'
p1186
sS'f_cpu'
p1187
S'16000000L'
p1188
sS'vid'
p1189
S'0x2341'
p1190
sS'pid'
p1191
S'0x8039'
p1192
sS'variant'
p1193
S'robot_motor'
p1194
sS'mcu'
p1195
S'atmega32u4'
p1196
ssS'name'
p1197
S'Arduino Robot Motor'
p1198
saatp1199
Rp1200
(dp1201
S'default'
p1202
S'uno'
p1203
sbtp1204
a(S'used_libs'
p1205
(lp1206
S'/usr/share/arduino/libraries/Servo'
p1207
aS'lib/ros_lib'
p1208
aS'/usr/share/arduino/hardware/arduino/cores/arduino'
p1209
atp1210
a(S'make'
p1211
S'/usr/share/arduino/hardware/tools/avr/bin/make'
p1212
tp1213
a(S'build_dir'
p1214
S'.build/uno'
p1215
tp1216
a(S'cxx'
p1217
S'/usr/share/arduino/hardware/tools/avr/bin/avr-g++'
p1218
tp1219
a(S'cflags'
p1220
g2
(g3
g4
(lp1221
tp1222
Rp1223
tp1224
a(S'cxxflags'
p1225
g2
(g3
g4
(lp1226
S'-fno-exceptions'
p1227
atp1228
Rp1229
tp1230
a(S'arduino_variants_dir'
p1231
S'/usr/share/arduino/hardware/arduino/variants'
p1232
tp1233
a(S'stty'
p1234
S'/bin/stty'
p1235
tp1236
a(S'version.txt'
p1237
S'/usr/share/arduino/lib/version.txt'
p1238
tp1239
a(S'arduino_core_dir'
p1240
g1209
tp1241
a(S'boards.txt'
p1242
S'/usr/share/arduino/hardware/arduino/boards.txt'
p1243
tp1244
a(S'avrdude.conf'
p1245
S'/usr/share/arduino/hardware/tools/avrdude.conf'
p1246
tp1247
a(S'deps'
p1248
g2
(g3
g4
(lp1249
S'.build/uno/src/dependencies.d'
p1250
aS'.build/uno/arduino/dependencies.d'
p1251
aS'.build/uno/Servo/dependencies.d'
p1252
aS'.build/uno/ros_lib/dependencies.d'
p1253
atp1254
Rp1255
tp1256
a.